target datalayout = "e-m:e-p270:32:32-p271:32:32-p272:64:64-i64:64-i128:128-f80:128-n8:16:32:64-S128"
target triple = "x86_64-pc-linux-gnu"

%union.SourceSpan = type { i64 }
%struct.Expr_ = type { ptr, %union.SourceSpan, i16, %union.anon.61 }
%union.anon.61 = type { %struct.ExprAnySwitch }
%struct.ExprAnySwitch = type { i8, %union.anon.63 }
%union.anon.63 = type { %struct.anon.64 }
%struct.anon.64 = type { ptr, %union.SourceSpan, ptr }
%struct.Type_ = type { i32, ptr, ptr, ptr, %union.anon.86, ptr, ptr, %union.anon.88 }
%union.anon.86 = type { ptr }
%union.anon.88 = type { %struct.TypeFunction }
%struct.TypeFunction = type { ptr, ptr, ptr }

; Function Attrs: nounwind uwtable
define internal void @expr_binary_unify_failability(ptr noundef %0, ptr noundef %1, ptr noundef %2) #0 {
  %4 = alloca ptr, align 8
  %5 = alloca ptr, align 8
  %6 = alloca i8, align 1
  %7 = alloca i1, align 1
  %8 = alloca ptr, align 8
  %9 = alloca i32, align 4
  %10 = alloca ptr, align 8
  %11 = alloca ptr, align 8
  %12 = alloca ptr, align 8
  store ptr %0, ptr %10, align 8
  store ptr %1, ptr %11, align 8
  store ptr %2, ptr %12, align 8
  %13 = load ptr, ptr %11, align 8
  %14 = getelementptr inbounds %struct.Expr_, ptr %13, i32 0, i32 0
  %15 = load ptr, ptr %14, align 8
  %16 = load ptr, ptr %12, align 8
  %17 = getelementptr inbounds %struct.Expr_, ptr %16, i32 0, i32 0
  %18 = load ptr, ptr %17, align 8
  store ptr %18, ptr %8, align 8
  %19 = load ptr, ptr %8, align 8
  %20 = icmp ne ptr %19, null
  br i1 %20, label %22, label %21

21:                                               ; preds = %3
  store i1 false, ptr %7, align 1
  br label %35

22:                                               ; preds = %3
  %23 = load ptr, ptr %8, align 8
  %24 = load i32, ptr %23, align 8
  store i32 %24, ptr %9, align 4
  %25 = load i32, ptr %9, align 4
  %26 = icmp eq i32 %25, 31
  br i1 %26, label %27, label %32

27:                                               ; preds = %22
  %28 = load ptr, ptr %8, align 8
  %29 = getelementptr inbounds %struct.Type_, ptr %28, i32 0, i32 1
  %30 = load ptr, ptr %29, align 8
  %31 = load i32, ptr %30, align 8
  store i32 %31, ptr %9, align 4
  br label %32

32:                                               ; preds = %27, %22
  %33 = load i32, ptr %9, align 4
  %34 = icmp eq i32 %33, 40
  store i1 %34, ptr %7, align 1
  br label %35

35:                                               ; preds = %32, %21
  %36 = load i1, ptr %7, align 1
  store ptr %15, ptr %5, align 8
  %37 = zext i1 %36 to i8
  store i8 %37, ptr %6, align 1
  %38 = load i8, ptr %6, align 1
  %39 = trunc i8 %38 to i1
  br i1 %39, label %40, label %44

40:                                               ; preds = %35
  %41 = load ptr, ptr %5, align 8
  %42 = load i32, ptr %41, align 8
  %43 = icmp eq i32 %42, 40
  br i1 %43, label %44, label %46

44:                                               ; preds = %40, %35
  %45 = load ptr, ptr %5, align 8
  store ptr %45, ptr %4, align 8
  br label %49

46:                                               ; preds = %40
  %47 = load ptr, ptr %5, align 8
  %48 = call ptr @type_get_optional(ptr noundef %47) #7
  store ptr %48, ptr %4, align 8
  br label %49

49:                                               ; preds = %46, %44
  %50 = load ptr, ptr %4, align 8
  %51 = load ptr, ptr %10, align 8
  %52 = getelementptr inbounds %struct.Expr_, ptr %51, i32 0, i32 0
  store ptr %50, ptr %52, align 8
  ret void
}