; Function Attrs: nounwind uwtable
define internal fastcc void @expr_binary_unify_failability(ptr nocapture noundef writeonly %0, ptr %.0.val, ptr readonly %.0.val1) unnamed_addr #0 {
  %.not = icmp eq ptr %.0.val1, null
  br i1 %.not, label %.critedge, label %2

2:                                                ; preds = %1
  %3 = load i32, ptr %.0.val1, align 8
  %4 = icmp eq i32 %3, 31
  br i1 %4, label %5, label %9

5:                                                ; preds = %2
  %6 = getelementptr inbounds i8, ptr %.0.val1, i64 8
  %7 = load ptr, ptr %6, align 8
  %8 = load i32, ptr %7, align 8
  br label %9

9:                                                ; preds = %5, %2
  %.014 = phi i32 [ %8, %5 ], [ %3, %2 ]
  %10 = icmp eq i32 %.014, 40
  br i1 %10, label %11, label %.critedge

11:                                               ; preds = %9
  %12 = load i32, ptr %.0.val, align 8
  %13 = icmp eq i32 %12, 40
  br i1 %13, label %.critedge, label %14

14:                                               ; preds = %11
  %15 = tail call ptr @type_get_optional(ptr noundef nonnull %.0.val) #13
  br label %.critedge

.critedge:                                        ; preds = %9, %11, %1, %14
  %.0 = phi ptr [ %15, %14 ], [ %.0.val, %1 ], [ %.0.val, %11 ], [ %.0.val, %9 ]
  store ptr %.0, ptr %0, align 8
  ret void
}